target datalayout = "e-m:e-p270:32:32-p271:32:32-p272:64:64-i64:64-i128:128-f80:128-n8:16:32:64-S128"
target triple = "x86_64-pc-linux-gnu"

@.str.63 = private unnamed_addr constant [4 x i8] c"dir\00", align 1

; Function Attrs: nounwind uwtable
define internal ptr @builtin_dir(ptr noundef %0, ptr noundef %1) #0 {
  %3 = alloca ptr, align 8
  %4 = alloca ptr, align 8
  %5 = alloca ptr, align 8
  %6 = alloca ptr, align 8
  %7 = alloca i32, align 4
  store ptr %0, ptr %4, align 8, !tbaa !4
  store ptr %1, ptr %5, align 8, !tbaa !4
  call void @llvm.lifetime.start.p0(i64 8, ptr %6) #9
  store ptr null, ptr %6, align 8, !tbaa !4
  %8 = load ptr, ptr %5, align 8, !tbaa !4
  %9 = call i32 (ptr, ptr, i64, i64, ...) @PyArg_UnpackTuple(ptr noundef %8, ptr noundef @.str.63, i64 noundef 0, i64 noundef 1, ptr noundef %6)
  %10 = icmp ne i32 %9, 0
  br i1 %10, label %12, label %11

11:                                               ; preds = %2
  store ptr null, ptr %3, align 8
  store i32 1, ptr %7, align 4
  br label %15

12:                                               ; preds = %2
  %13 = load ptr, ptr %6, align 8, !tbaa !4
  %14 = call ptr @PyObject_Dir(ptr noundef %13)
  store ptr %14, ptr %3, align 8
  store i32 1, ptr %7, align 4
  br label %15

15:                                               ; preds = %12, %11
  call void @llvm.lifetime.end.p0(i64 8, ptr %6) #9
  %16 = load ptr, ptr %3, align 8
  ret ptr %16
}